target datalayout = "e-m:e-p270:32:32-p271:32:32-p272:64:64-i64:64-i128:128-f80:128-n8:16:32:64-S128"
target triple = "x86_64-pc-linux-gnu"

%struct.Aig_Man_t_ = type { ptr, ptr, ptr, ptr, ptr, ptr, ptr, %struct.Aig_Obj_t_, i32, i32, i32, i32, i32, i32, [7 x i32], i32, ptr, i32, ptr, i32, ptr, i32, i32, i32, ptr, i32, i32, i32, i32, i32, ptr, ptr, i32, ptr, ptr, i32, ptr, ptr, i32, i32, i32, ptr, ptr, ptr, ptr, ptr, ptr, ptr, ptr, ptr, ptr, ptr, ptr, ptr, ptr, i32, ptr, ptr, ptr, ptr, i32, i64, i64, i64, ptr, ptr }
%struct.Aig_Obj_t_ = type { %union.anon, ptr, ptr, i64, i32, i32, %union.anon.0 }
%union.anon = type { ptr }
%union.anon.0 = type { ptr }
%struct.Vec_Ptr_t_ = type { i32, i32, ptr }

; Function Attrs: inlinehint nounwind uwtable
define internal ptr @Aig_Regular(ptr noundef %0) #5 {
  %2 = alloca ptr, align 8
  store ptr %0, ptr %2, align 8, !tbaa !26
  %3 = load ptr, ptr %2, align 8, !tbaa !26
  %4 = ptrtoint ptr %3 to i64
  %5 = and i64 %4, -2
  %6 = inttoptr i64 %5 to ptr
  ret ptr %6
}

; Function Attrs: inlinehint nounwind uwtable
define internal i32 @Saig_ManPoNum(ptr noundef %0) #5 {
  %2 = alloca ptr, align 8
  store ptr %0, ptr %2, align 8, !tbaa !10
  %3 = load ptr, ptr %2, align 8, !tbaa !10
  %4 = getelementptr inbounds nuw %struct.Aig_Man_t_, ptr %3, i32 0, i32 10
  %5 = load i32, ptr %4, align 8, !tbaa !34
  ret i32 %5
}

; Function Attrs: inlinehint nounwind uwtable
define internal i32 @Aig_ObjIsCo(ptr noundef %0) #5 {
  %2 = alloca ptr, align 8
  store ptr %0, ptr %2, align 8, !tbaa !26
  %3 = load ptr, ptr %2, align 8, !tbaa !26
  %4 = getelementptr inbounds nuw %struct.Aig_Obj_t_, ptr %3, i32 0, i32 3
  %5 = load i64, ptr %4, align 8
  %6 = and i64 %5, 7
  %7 = trunc i64 %6 to i32
  %8 = icmp eq i32 %7, 3
  %9 = zext i1 %8 to i32
  ret i32 %9
}

; Function Attrs: inlinehint nounwind uwtable
define internal i32 @Saig_ManPiNum(ptr noundef %0) #5 {
  %2 = alloca ptr, align 8
  store ptr %0, ptr %2, align 8, !tbaa !10
  %3 = load ptr, ptr %2, align 8, !tbaa !10
  %4 = getelementptr inbounds nuw %struct.Aig_Man_t_, ptr %3, i32 0, i32 9
  %5 = load i32, ptr %4, align 4, !tbaa !44
  ret i32 %5
}

; Function Attrs: inlinehint nounwind uwtable
define internal i32 @Aig_ObjCioId(ptr noundef %0) #5 {
  %2 = alloca ptr, align 8
  store ptr %0, ptr %2, align 8, !tbaa !26
  %3 = load ptr, ptr %2, align 8, !tbaa !26
  %4 = getelementptr inbounds nuw %struct.Aig_Obj_t_, ptr %3, i32 0, i32 0
  %5 = load i32, ptr %4, align 8, !tbaa !72
  ret i32 %5
}

; Function Attrs: inlinehint nounwind uwtable
define internal i32 @Aig_ObjIsCi(ptr noundef %0) #5 {
  %2 = alloca ptr, align 8
  store ptr %0, ptr %2, align 8, !tbaa !26
  %3 = load ptr, ptr %2, align 8, !tbaa !26
  %4 = getelementptr inbounds nuw %struct.Aig_Obj_t_, ptr %3, i32 0, i32 3
  %5 = load i64, ptr %4, align 8
  %6 = and i64 %5, 7
  %7 = trunc i64 %6 to i32
  %8 = icmp eq i32 %7, 2
  %9 = zext i1 %8 to i32
  ret i32 %9
}

; Function Attrs: inlinehint nounwind uwtable
define internal i32 @Aig_ObjId(ptr noundef %0) #5 {
  %2 = alloca ptr, align 8
  store ptr %0, ptr %2, align 8, !tbaa !26
  %3 = load ptr, ptr %2, align 8, !tbaa !26
  %4 = getelementptr inbounds nuw %struct.Aig_Obj_t_, ptr %3, i32 0, i32 5
  %5 = load i32, ptr %4, align 4, !tbaa !80
  ret i32 %5
}

; Function Attrs: inlinehint nounwind uwtable
define internal i32 @Saig_ManBmcSimInfoGet(ptr noundef %0, ptr noundef %1) #5 {
  %3 = alloca ptr, align 8
  %4 = alloca ptr, align 8
  store ptr %0, ptr %3, align 8, !tbaa !12
  store ptr %1, ptr %4, align 8, !tbaa !26
  %5 = load ptr, ptr %3, align 8, !tbaa !12
  %6 = load ptr, ptr %4, align 8, !tbaa !26
  %7 = call i32 @Aig_ObjId(ptr noundef %6)
  %8 = ashr i32 %7, 4
  %9 = sext i32 %8 to i64
  %10 = getelementptr inbounds i32, ptr %5, i64 %9
  %11 = load i32, ptr %10, align 4, !tbaa !8
  %12 = load ptr, ptr %4, align 8, !tbaa !26
  %13 = call i32 @Aig_ObjId(ptr noundef %12)
  %14 = and i32 %13, 15
  %15 = shl i32 %14, 1
  %16 = lshr i32 %11, %15
  %17 = and i32 3, %16
  ret i32 %17
}

; Function Attrs: inlinehint nounwind uwtable
define internal ptr @Aig_ObjFanin1(ptr noundef %0) #5 {
  %2 = alloca ptr, align 8
  store ptr %0, ptr %2, align 8, !tbaa !26
  %3 = load ptr, ptr %2, align 8, !tbaa !26
  %4 = getelementptr inbounds nuw %struct.Aig_Obj_t_, ptr %3, i32 0, i32 2
  %5 = load ptr, ptr %4, align 8, !tbaa !46
  %6 = call ptr @Aig_Regular(ptr noundef %5)
  ret ptr %6
}

; Function Attrs: inlinehint nounwind uwtable
define internal ptr @Vec_PtrEntry(ptr noundef %0, i32 noundef %1) #5 {
  %3 = alloca ptr, align 8
  %4 = alloca i32, align 4
  store ptr %0, ptr %3, align 8, !tbaa !30
  store i32 %1, ptr %4, align 4, !tbaa !8
  %5 = load ptr, ptr %3, align 8, !tbaa !30
  %6 = getelementptr inbounds nuw %struct.Vec_Ptr_t_, ptr %5, i32 0, i32 2
  %7 = load ptr, ptr %6, align 8, !tbaa !31
  %8 = load i32, ptr %4, align 4, !tbaa !8
  %9 = sext i32 %8 to i64
  %10 = getelementptr inbounds ptr, ptr %7, i64 %9
  %11 = load ptr, ptr %10, align 8, !tbaa !33
  ret ptr %11
}

; Function Attrs: inlinehint nounwind uwtable
define internal ptr @Saig_ObjLoToLi(ptr noundef %0, ptr noundef %1) #5 {
  %3 = alloca ptr, align 8
  %4 = alloca ptr, align 8
  store ptr %0, ptr %3, align 8, !tbaa !10
  store ptr %1, ptr %4, align 8, !tbaa !26
  %5 = load ptr, ptr %3, align 8, !tbaa !10
  %6 = getelementptr inbounds nuw %struct.Aig_Man_t_, ptr %5, i32 0, i32 3
  %7 = load ptr, ptr %6, align 8, !tbaa !14
  %8 = load ptr, ptr %3, align 8, !tbaa !10
  %9 = call i32 @Saig_ManPoNum(ptr noundef %8)
  %10 = load ptr, ptr %4, align 8, !tbaa !26
  %11 = call i32 @Aig_ObjCioId(ptr noundef %10)
  %12 = add nsw i32 %9, %11
  %13 = load ptr, ptr %3, align 8, !tbaa !10
  %14 = call i32 @Saig_ManPiNum(ptr noundef %13)
  %15 = sub nsw i32 %12, %14
  %16 = call ptr @Vec_PtrEntry(ptr noundef %7, i32 noundef %15)
  ret ptr %16
}

; Function Attrs: inlinehint nounwind uwtable
define internal ptr @Aig_ObjFanin0(ptr noundef %0) #5 {
  %2 = alloca ptr, align 8
  store ptr %0, ptr %2, align 8, !tbaa !26
  %3 = load ptr, ptr %2, align 8, !tbaa !26
  %4 = getelementptr inbounds nuw %struct.Aig_Obj_t_, ptr %3, i32 0, i32 1
  %5 = load ptr, ptr %4, align 8, !tbaa !35
  %6 = call ptr @Aig_Regular(ptr noundef %5)
  ret ptr %6
}

; Function Attrs: inlinehint nounwind uwtable
define internal i32 @Saig_ObjIsLi(ptr noundef %0, ptr noundef %1) #5 {
  %3 = alloca ptr, align 8
  %4 = alloca ptr, align 8
  store ptr %0, ptr %3, align 8, !tbaa !10
  store ptr %1, ptr %4, align 8, !tbaa !26
  %5 = load ptr, ptr %4, align 8, !tbaa !26
  %6 = call i32 @Aig_ObjIsCo(ptr noundef %5)
  %7 = icmp ne i32 %6, 0
  br i1 %7, label %8, label %14

8:                                                ; preds = %2
  %9 = load ptr, ptr %4, align 8, !tbaa !26
  %10 = call i32 @Aig_ObjCioId(ptr noundef %9)
  %11 = load ptr, ptr %3, align 8, !tbaa !10
  %12 = call i32 @Saig_ManPoNum(ptr noundef %11)
  %13 = icmp sge i32 %10, %12
  br label %14

14:                                               ; preds = %8, %2
  %15 = phi i1 [ false, %2 ], [ %13, %8 ]
  %16 = zext i1 %15 to i32
  ret i32 %16
}

; Function Attrs: inlinehint nounwind uwtable
define internal i32 @Aig_ObjIsConst1(ptr noundef %0) #5 {
  %2 = alloca ptr, align 8
  store ptr %0, ptr %2, align 8, !tbaa !26
  %3 = load ptr, ptr %2, align 8, !tbaa !26
  %4 = getelementptr inbounds nuw %struct.Aig_Obj_t_, ptr %3, i32 0, i32 3
  %5 = load i64, ptr %4, align 8
  %6 = and i64 %5, 7
  %7 = trunc i64 %6 to i32
  %8 = icmp eq i32 %7, 1
  %9 = zext i1 %8 to i32
  ret i32 %9
}

; Function Attrs: inlinehint nounwind uwtable
define internal i32 @Saig_ObjIsLo(ptr noundef %0, ptr noundef %1) #5 {
  %3 = alloca ptr, align 8
  %4 = alloca ptr, align 8
  store ptr %0, ptr %3, align 8, !tbaa !10
  store ptr %1, ptr %4, align 8, !tbaa !26
  %5 = load ptr, ptr %4, align 8, !tbaa !26
  %6 = call i32 @Aig_ObjIsCi(ptr noundef %5)
  %7 = icmp ne i32 %6, 0
  br i1 %7, label %8, label %14

8:                                                ; preds = %2
  %9 = load ptr, ptr %4, align 8, !tbaa !26
  %10 = call i32 @Aig_ObjCioId(ptr noundef %9)
  %11 = load ptr, ptr %3, align 8, !tbaa !10
  %12 = call i32 @Saig_ManPiNum(ptr noundef %11)
  %13 = icmp sge i32 %10, %12
  br label %14

14:                                               ; preds = %8, %2
  %15 = phi i1 [ false, %2 ], [ %13, %8 ]
  %16 = zext i1 %15 to i32
  ret i32 %16
}

; Function Attrs: inlinehint nounwind uwtable
define internal i32 @Saig_ObjIsPi(ptr noundef %0, ptr noundef %1) #5 {
  %3 = alloca ptr, align 8
  %4 = alloca ptr, align 8
  store ptr %0, ptr %3, align 8, !tbaa !10
  store ptr %1, ptr %4, align 8, !tbaa !26
  %5 = load ptr, ptr %4, align 8, !tbaa !26
  %6 = call i32 @Aig_ObjIsCi(ptr noundef %5)
  %7 = icmp ne i32 %6, 0
  br i1 %7, label %8, label %14

8:                                                ; preds = %2
  %9 = load ptr, ptr %4, align 8, !tbaa !26
  %10 = call i32 @Aig_ObjCioId(ptr noundef %9)
  %11 = load ptr, ptr %3, align 8, !tbaa !10
  %12 = call i32 @Saig_ManPiNum(ptr noundef %11)
  %13 = icmp slt i32 %10, %12
  br label %14

14:                                               ; preds = %8, %2
  %15 = phi i1 [ false, %2 ], [ %13, %8 ]
  %16 = zext i1 %15 to i32
  ret i32 %16
}

; Function Attrs: inlinehint nounwind uwtable
define internal i32 @Saig_ManBmcSimInfoClear(ptr noundef %0, ptr noundef %1) #5 {
  %3 = alloca ptr, align 8
  %4 = alloca ptr, align 8
  %5 = alloca i32, align 4
  store ptr %0, ptr %3, align 8, !tbaa !12
  store ptr %1, ptr %4, align 8, !tbaa !26
  call void @llvm.lifetime.start.p0(i64 4, ptr %5) #11
  %6 = load ptr, ptr %3, align 8, !tbaa !12
  %7 = load ptr, ptr %4, align 8, !tbaa !26
  %8 = call i32 @Saig_ManBmcSimInfoGet(ptr noundef %6, ptr noundef %7)
  store i32 %8, ptr %5, align 4, !tbaa !8
  %9 = load i32, ptr %5, align 4, !tbaa !8
  %10 = load ptr, ptr %4, align 8, !tbaa !26
  %11 = call i32 @Aig_ObjId(ptr noundef %10)
  %12 = and i32 %11, 15
  %13 = shl i32 %12, 1
  %14 = shl i32 %9, %13
  %15 = load ptr, ptr %3, align 8, !tbaa !12
  %16 = load ptr, ptr %4, align 8, !tbaa !26
  %17 = call i32 @Aig_ObjId(ptr noundef %16)
  %18 = ashr i32 %17, 4
  %19 = sext i32 %18 to i64
  %20 = getelementptr inbounds i32, ptr %15, i64 %19
  %21 = load i32, ptr %20, align 4, !tbaa !8
  %22 = xor i32 %21, %14
  store i32 %22, ptr %20, align 4, !tbaa !8
  %23 = load i32, ptr %5, align 4, !tbaa !8
  call void @llvm.lifetime.end.p0(i64 4, ptr %5) #11
  ret i32 %23
}

; Function Attrs: nounwind uwtable
define i32 @Saig_ManBmcCountNonternary_rec(ptr noundef %0, ptr noundef %1, ptr noundef %2, ptr noundef %3, i32 noundef %4, ptr noundef %5) #0 {
  %7 = alloca i32, align 4
  %8 = alloca ptr, align 8
  %9 = alloca ptr, align 8
  %10 = alloca ptr, align 8
  %11 = alloca ptr, align 8
  %12 = alloca i32, align 4
  %13 = alloca ptr, align 8
  %14 = alloca i32, align 4
  %15 = alloca i32, align 4
  store ptr %0, ptr %8, align 8, !tbaa !10
  store ptr %1, ptr %9, align 8, !tbaa !26
  store ptr %2, ptr %10, align 8, !tbaa !30
  store ptr %3, ptr %11, align 8, !tbaa !12
  store i32 %4, ptr %12, align 4, !tbaa !8
  store ptr %5, ptr %13, align 8, !tbaa !12
  call void @llvm.lifetime.start.p0(i64 4, ptr %14) #11
  %16 = load ptr, ptr %11, align 8, !tbaa !12
  %17 = load ptr, ptr %9, align 8, !tbaa !26
  %18 = call i32 @Saig_ManBmcSimInfoClear(ptr noundef %16, ptr noundef %17)
  store i32 %18, ptr %14, align 4, !tbaa !8
  %19 = load i32, ptr %14, align 4, !tbaa !8
  %20 = icmp eq i32 %19, 0
  br i1 %20, label %21, label %22

21:                                               ; preds = %6
  store i32 0, ptr %7, align 4
  store i32 1, ptr %15, align 4
  br label %99

22:                                               ; preds = %6
  %23 = load i32, ptr %14, align 4, !tbaa !8
  %24 = icmp eq i32 %23, 3
  %25 = zext i1 %24 to i32
  %26 = load ptr, ptr %13, align 8, !tbaa !12
  %27 = load i32, ptr %12, align 4, !tbaa !8
  %28 = sext i32 %27 to i64
  %29 = getelementptr inbounds i32, ptr %26, i64 %28
  %30 = load i32, ptr %29, align 4, !tbaa !8
  %31 = add nsw i32 %30, %25
  store i32 %31, ptr %29, align 4, !tbaa !8
  %32 = load ptr, ptr %8, align 8, !tbaa !10
  %33 = load ptr, ptr %9, align 8, !tbaa !26
  %34 = call i32 @Saig_ObjIsPi(ptr noundef %32, ptr noundef %33)
  %35 = icmp ne i32 %34, 0
  br i1 %35, label %48, label %36

36:                                               ; preds = %22
  %37 = load i32, ptr %12, align 4, !tbaa !8
  %38 = icmp eq i32 %37, 0
  br i1 %38, label %39, label %44

39:                                               ; preds = %36
  %40 = load ptr, ptr %8, align 8, !tbaa !10
  %41 = load ptr, ptr %9, align 8, !tbaa !26
  %42 = call i32 @Saig_ObjIsLo(ptr noundef %40, ptr noundef %41)
  %43 = icmp ne i32 %42, 0
  br i1 %43, label %48, label %44

44:                                               ; preds = %39, %36
  %45 = load ptr, ptr %9, align 8, !tbaa !26
  %46 = call i32 @Aig_ObjIsConst1(ptr noundef %45)
  %47 = icmp ne i32 %46, 0
  br i1 %47, label %48, label %49

48:                                               ; preds = %44, %39, %22
  store i32 0, ptr %7, align 4
  store i32 1, ptr %15, align 4
  br label %99

49:                                               ; preds = %44
  %50 = load ptr, ptr %8, align 8, !tbaa !10
  %51 = load ptr, ptr %9, align 8, !tbaa !26
  %52 = call i32 @Saig_ObjIsLi(ptr noundef %50, ptr noundef %51)
  %53 = icmp ne i32 %52, 0
  br i1 %53, label %54, label %63

54:                                               ; preds = %49
  %55 = load ptr, ptr %8, align 8, !tbaa !10
  %56 = load ptr, ptr %9, align 8, !tbaa !26
  %57 = call ptr @Aig_ObjFanin0(ptr noundef %56)
  %58 = load ptr, ptr %10, align 8, !tbaa !30
  %59 = load ptr, ptr %11, align 8, !tbaa !12
  %60 = load i32, ptr %12, align 4, !tbaa !8
  %61 = load ptr, ptr %13, align 8, !tbaa !12
  %62 = call i32 @Saig_ManBmcCountNonternary_rec(ptr noundef %55, ptr noundef %57, ptr noundef %58, ptr noundef %59, i32 noundef %60, ptr noundef %61)
  store i32 %62, ptr %7, align 4
  store i32 1, ptr %15, align 4
  br label %99

63:                                               ; preds = %49
  %64 = load ptr, ptr %8, align 8, !tbaa !10
  %65 = load ptr, ptr %9, align 8, !tbaa !26
  %66 = call i32 @Saig_ObjIsLo(ptr noundef %64, ptr noundef %65)
  %67 = icmp ne i32 %66, 0
  br i1 %67, label %68, label %82

68:                                               ; preds = %63
  %69 = load ptr, ptr %8, align 8, !tbaa !10
  %70 = load ptr, ptr %8, align 8, !tbaa !10
  %71 = load ptr, ptr %9, align 8, !tbaa !26
  %72 = call ptr @Saig_ObjLoToLi(ptr noundef %70, ptr noundef %71)
  %73 = load ptr, ptr %10, align 8, !tbaa !30
  %74 = load ptr, ptr %10, align 8, !tbaa !30
  %75 = load i32, ptr %12, align 4, !tbaa !8
  %76 = sub nsw i32 %75, 1
  %77 = call ptr @Vec_PtrEntry(ptr noundef %74, i32 noundef %76)
  %78 = load i32, ptr %12, align 4, !tbaa !8
  %79 = sub nsw i32 %78, 1
  %80 = load ptr, ptr %13, align 8, !tbaa !12
  %81 = call i32 @Saig_ManBmcCountNonternary_rec(ptr noundef %69, ptr noundef %72, ptr noundef %73, ptr noundef %77, i32 noundef %79, ptr noundef %80)
  store i32 %81, ptr %7, align 4
  store i32 1, ptr %15, align 4
  br label %99

82:                                               ; preds = %63
  %83 = load ptr, ptr %8, align 8, !tbaa !10
  %84 = load ptr, ptr %9, align 8, !tbaa !26
  %85 = call ptr @Aig_ObjFanin0(ptr noundef %84)
  %86 = load ptr, ptr %10, align 8, !tbaa !30
  %87 = load ptr, ptr %11, align 8, !tbaa !12
  %88 = load i32, ptr %12, align 4, !tbaa !8
  %89 = load ptr, ptr %13, align 8, !tbaa !12
  %90 = call i32 @Saig_ManBmcCountNonternary_rec(ptr noundef %83, ptr noundef %85, ptr noundef %86, ptr noundef %87, i32 noundef %88, ptr noundef %89)
  %91 = load ptr, ptr %8, align 8, !tbaa !10
  %92 = load ptr, ptr %9, align 8, !tbaa !26
  %93 = call ptr @Aig_ObjFanin1(ptr noundef %92)
  %94 = load ptr, ptr %10, align 8, !tbaa !30
  %95 = load ptr, ptr %11, align 8, !tbaa !12
  %96 = load i32, ptr %12, align 4, !tbaa !8
  %97 = load ptr, ptr %13, align 8, !tbaa !12
  %98 = call i32 @Saig_ManBmcCountNonternary_rec(ptr noundef %91, ptr noundef %93, ptr noundef %94, ptr noundef %95, i32 noundef %96, ptr noundef %97)
  store i32 0, ptr %7, align 4
  store i32 1, ptr %15, align 4
  br label %99

99:                                               ; preds = %82, %68, %54, %48, %21
  call void @llvm.lifetime.end.p0(i64 4, ptr %14) #11
  %100 = load i32, ptr %7, align 4
  ret i32 %100
}