; Function Attrs: nofree nosync nounwind memory(readwrite, inaccessiblemem: none) uwtable
define noundef i32 @Saig_ManBmcCountNonternary_rec(ptr noundef readonly captures(none) %0, ptr noundef readonly captures(none) %1, ptr noundef readonly captures(none) %2, ptr noundef captures(none) %3, i32 noundef %4, ptr noundef captures(none) %5) local_unnamed_addr #9 {
  %7 = getelementptr i8, ptr %1, i64 36
  %.val5189102 = load i32, ptr %7, align 4, !tbaa !27
  %8 = ashr i32 %.val5189102, 4
  %9 = sext i32 %8 to i64
  %10 = getelementptr inbounds i32, ptr %3, i64 %9
  %11 = load i32, ptr %10, align 4, !tbaa !28
  %12 = shl i32 %.val5189102, 1
  %13 = and i32 %12, 30
  %14 = lshr i32 %11, %13
  %15 = and i32 %14, 3
  %16 = shl nuw i32 %15, %13
  %17 = xor i32 %16, %11
  store i32 %17, ptr %10, align 4, !tbaa !28
  %18 = icmp eq i32 %15, 0
  br i1 %18, label %tailrecurse.outer._crit_edge, label %.lr.ph.lr.ph

.lr.ph.lr.ph:                                     ; preds = %6
  %19 = getelementptr i8, ptr %0, i64 108
  %20 = getelementptr i8, ptr %0, i64 112
  %21 = getelementptr inbounds nuw i8, ptr %0, i64 24
  %22 = getelementptr i8, ptr %2, i64 8
  %23 = sext i32 %4 to i64
  br label %.lr.ph

.lr.ph:                                           ; preds = %.lr.ph.lr.ph, %tailrecurse.outer
  %indvars.iv = phi i64 [ %23, %.lr.ph.lr.ph ], [ %indvars.iv.next, %tailrecurse.outer ]
  %24 = phi i32 [ %15, %.lr.ph.lr.ph ], [ %66, %tailrecurse.outer ]
  %.tr80.ph104 = phi ptr [ %3, %.lr.ph.lr.ph ], [ %57, %tailrecurse.outer ]
  %.tr78.ph103 = phi ptr [ %1, %.lr.ph.lr.ph ], [ %55, %tailrecurse.outer ]
  %25 = getelementptr inbounds i32, ptr %5, i64 %indvars.iv
  %26 = icmp eq i64 %indvars.iv, 0
  %27 = trunc nsw i64 %indvars.iv to i32
  br label %28

28:                                               ; preds = %.lr.ph, %tailrecurse.backedge
  %29 = phi i32 [ %24, %.lr.ph ], [ %45, %tailrecurse.backedge ]
  %.tr7890 = phi ptr [ %.tr78.ph103, %.lr.ph ], [ %.tr78.be, %tailrecurse.backedge ]
  %30 = icmp eq i32 %29, 3
  %31 = zext i1 %30 to i32
  %32 = load i32, ptr %25, align 4, !tbaa !28
  %33 = add nsw i32 %32, %31
  store i32 %33, ptr %25, align 4, !tbaa !28
  %34 = getelementptr i8, ptr %.tr7890, i64 24
  %.val3.i = load i64, ptr %34, align 8
  %35 = and i64 %.val3.i, 7
  switch i64 %35, label %Saig_ObjIsLo.exit65.thread [
    i64 2, label %Saig_ObjIsPi.exit
    i64 1, label %tailrecurse.outer._crit_edge
    i64 3, label %Saig_ObjIsLi.exit
  ]

Saig_ObjIsPi.exit:                                ; preds = %28
  %.val4.i = load i32, ptr %.tr7890, align 8, !tbaa !51
  %.val.i = load i32, ptr %19, align 4, !tbaa !34
  %.not = icmp slt i32 %.val4.i, %.val.i
  %brmerge = or i1 %.not, %26
  br i1 %brmerge, label %tailrecurse.outer._crit_edge, label %Saig_ObjIsLo.exit65

Saig_ObjIsLi.exit:                                ; preds = %28
  %.val3.i59 = load i32, ptr %.tr7890, align 8, !tbaa !51
  %.val.i60 = load i32, ptr %20, align 8, !tbaa !22
  %.not77 = icmp slt i32 %.val3.i59, %.val.i60
  br i1 %.not77, label %Saig_ObjIsLo.exit65.thread, label %tailrecurse.backedge

tailrecurse.backedge:                             ; preds = %Saig_ObjIsLi.exit, %Saig_ObjIsLo.exit65.thread
  %.sink = phi i64 [ 16, %Saig_ObjIsLo.exit65.thread ], [ 8, %Saig_ObjIsLi.exit ]
  %36 = getelementptr i8, ptr %.tr7890, i64 %.sink
  %.tr78.be.in.in.in = load ptr, ptr %36, align 8, !tbaa !52
  %.tr78.be.in.in = ptrtoint ptr %.tr78.be.in.in.in to i64
  %.tr78.be.in = and i64 %.tr78.be.in.in, -2
  %.tr78.be = inttoptr i64 %.tr78.be.in to ptr
  %37 = getelementptr i8, ptr %.tr78.be, i64 36
  %.val51 = load i32, ptr %37, align 4, !tbaa !27
  %38 = ashr i32 %.val51, 4
  %39 = sext i32 %38 to i64
  %40 = getelementptr inbounds i32, ptr %.tr80.ph104, i64 %39
  %41 = load i32, ptr %40, align 4, !tbaa !28
  %42 = shl i32 %.val51, 1
  %43 = and i32 %42, 30
  %44 = lshr i32 %41, %43
  %45 = and i32 %44, 3
  %46 = shl nuw i32 %45, %43
  %47 = xor i32 %46, %41
  store i32 %47, ptr %40, align 4, !tbaa !28
  %48 = icmp eq i32 %45, 0
  br i1 %48, label %tailrecurse.outer._crit_edge, label %28

Saig_ObjIsLo.exit65:                              ; preds = %Saig_ObjIsPi.exit
  %.val4.i63 = load i32, ptr %.tr7890, align 8, !tbaa !51
  %.val.i64 = load i32, ptr %19, align 4, !tbaa !34
  %.not76 = icmp slt i32 %.val4.i63, %.val.i64
  br i1 %.not76, label %Saig_ObjIsLo.exit65.thread, label %tailrecurse.outer

tailrecurse.outer:                                ; preds = %Saig_ObjIsLo.exit65
  %49 = load ptr, ptr %21, align 8, !tbaa !21
  %.val.i66 = load i32, ptr %20, align 8, !tbaa !22
  %50 = add nsw i32 %.val.i66, %.val4.i63
  %51 = sub i32 %50, %.val.i64
  %52 = getelementptr i8, ptr %49, i64 8
  %.val4.i67 = load ptr, ptr %52, align 8, !tbaa !23
  %53 = sext i32 %51 to i64
  %54 = getelementptr inbounds ptr, ptr %.val4.i67, i64 %53
  %55 = load ptr, ptr %54, align 8, !tbaa !25
  %indvars.iv.next = add nsw i64 %indvars.iv, -1
  %.val = load ptr, ptr %22, align 8, !tbaa !23
  %56 = getelementptr inbounds ptr, ptr %.val, i64 %indvars.iv.next
  %57 = load ptr, ptr %56, align 8, !tbaa !25
  %58 = getelementptr i8, ptr %55, i64 36
  %.val5189 = load i32, ptr %58, align 4, !tbaa !27
  %59 = ashr i32 %.val5189, 4
  %60 = sext i32 %59 to i64
  %61 = getelementptr inbounds i32, ptr %57, i64 %60
  %62 = load i32, ptr %61, align 4, !tbaa !28
  %63 = shl i32 %.val5189, 1
  %64 = and i32 %63, 30
  %65 = lshr i32 %62, %64
  %66 = and i32 %65, 3
  %67 = shl nuw i32 %66, %64
  %68 = xor i32 %67, %62
  store i32 %68, ptr %61, align 4, !tbaa !28
  %69 = icmp eq i32 %66, 0
  br i1 %69, label %tailrecurse.outer._crit_edge, label %.lr.ph

Saig_ObjIsLo.exit65.thread:                       ; preds = %28, %Saig_ObjIsLi.exit, %Saig_ObjIsLo.exit65
  %70 = getelementptr i8, ptr %.tr7890, i64 8
  %.val47 = load ptr, ptr %70, align 8, !tbaa !26
  %71 = ptrtoint ptr %.val47 to i64
  %72 = and i64 %71, -2
  %73 = inttoptr i64 %72 to ptr
  %74 = tail call i32 @Saig_ManBmcCountNonternary_rec(ptr noundef %0, ptr noundef %73, ptr noundef %2, ptr noundef nonnull %.tr80.ph104, i32 noundef %27, ptr noundef nonnull %5)
  br label %tailrecurse.backedge

tailrecurse.outer._crit_edge:                     ; preds = %tailrecurse.outer, %tailrecurse.backedge, %Saig_ObjIsPi.exit, %28, %6
  ret i32 0
}